target datalayout = "e-m:e-p270:32:32-p271:32:32-p272:64:64-i64:64-i128:128-f80:128-n8:16:32:64-S128"
target triple = "x86_64-unknown-linux-gnu"

%"class.sat::literal" = type { i32 }
%"class.q::queue" = type { ptr, ptr, ptr, ptr, %"struct.q::queue::stats", %class.obj_ref, %class.obj_ref, %class.cost_parser, %class.cost_evaluator, %class.cached_var_subst, %class.svector.30, double, %class.svector.32, %class.svector.32 }
%"struct.q::queue::stats" = type { i32, i32 }
%class.obj_ref = type { ptr, ptr }
%class.cost_parser = type { %class.simple_parser, %class.arith_util, %class.ref_vector.4 }
%class.simple_parser = type { ptr, ptr, %class.map, %class.map.0, %class.ref_vector }
%class.map = type { %class.table2map }
%class.table2map = type { %class.core_hashtable }
%class.core_hashtable = type <{ ptr, i32, i32, i32, [4 x i8] }>
%class.map.0 = type { %class.table2map.1 }
%class.table2map.1 = type { %class.core_hashtable.2 }
%class.core_hashtable.2 = type <{ ptr, i32, i32, i32, [4 x i8] }>
%class.ref_vector = type { %class.ref_vector_core }
%class.ref_vector_core = type { %class.ref_manager_wrapper, %class.ptr_vector }
%class.ref_manager_wrapper = type { ptr }
%class.ptr_vector = type { %class.vector }
%class.vector = type { ptr }
%class.arith_util = type { ptr, ptr }
%class.ref_vector.4 = type { %class.ref_vector_core.5 }
%class.ref_vector_core.5 = type { %class.ref_manager_wrapper.6, %class.ptr_vector.7 }
%class.ref_manager_wrapper.6 = type { ptr }
%class.ptr_vector.7 = type { %class.vector.8 }
%class.vector.8 = type { ptr }
%class.cost_evaluator = type { ptr, %class.arith_util, i32, ptr }
%class.cached_var_subst = type { ptr, %class.var_subst, %class.ref_vector, %class.map.24, %class.region, %class.ptr_vector.28, ptr }
%class.var_subst = type { %class.beta_reducer, i8, [7 x i8] }
%class.beta_reducer = type <{ %class.rewriter_tpl, %struct.beta_reducer_cfg, [7 x i8] }>
%class.rewriter_tpl = type { %class.rewriter_core, ptr, i32, %class.ptr_vector, %class.var_shifter, %class.inv_var_shifter, %class.obj_ref, %class.obj_ref.21, %class.obj_ref.21, %class.svector.22 }
%class.rewriter_core = type { ptr, ptr, i8, i8, %class.ptr_vector.9, ptr, %class.svector, %class.ref_vector, %class.ptr_vector.9, ptr, %class.ref_vector.12, %class.obj_hashtable, ptr, i32, %class.svector.19 }
%class.svector = type { %class.vector.11 }
%class.vector.11 = type { ptr }
%class.ptr_vector.9 = type { %class.vector.10 }
%class.vector.10 = type { ptr }
%class.ref_vector.12 = type { %class.ref_vector_core.13 }
%class.ref_vector_core.13 = type { %class.ref_manager_wrapper.14, %class.ptr_vector.15 }
%class.ref_manager_wrapper.14 = type { ptr }
%class.ptr_vector.15 = type { %class.vector.16 }
%class.vector.16 = type { ptr }
%class.obj_hashtable = type { %class.core_hashtable.base.18, [4 x i8] }
%class.core_hashtable.base.18 = type <{ ptr, i32, i32, i32 }>
%class.svector.19 = type { %class.vector.20 }
%class.vector.20 = type { ptr }
%class.var_shifter = type <{ %class.var_shifter_core, i32, i32, i32, [4 x i8] }>
%class.var_shifter_core = type { %class.rewriter_core }
%class.inv_var_shifter = type <{ %class.var_shifter_core, i32, [4 x i8] }>
%class.obj_ref.21 = type { ptr, ptr }
%class.svector.22 = type { %class.vector.23 }
%class.vector.23 = type { ptr }
%struct.beta_reducer_cfg = type { i8 }
%class.map.24 = type { %class.table2map.25 }
%class.table2map.25 = type { %class.core_hashtable.26 }
%class.core_hashtable.26 = type <{ ptr, i32, i32, i32, [4 x i8] }>
%class.region = type { ptr, ptr, ptr, ptr, ptr }
%class.ptr_vector.28 = type { %class.vector.29 }
%class.vector.29 = type { ptr }
%class.svector.30 = type { %class.vector.31 }
%class.vector.31 = type { ptr }
%class.svector.32 = type { %class.vector.33 }
%class.vector.33 = type { ptr }
%"class.sat::extension" = type { ptr, i8, i32, %class.symbol, ptr }
%class.symbol = type { ptr }
%"struct.q::binding" = type { %class.dll_base, ptr, ptr, i32, i32, i32, [0 x ptr] }
%class.dll_base = type { ptr, ptr }
%"struct.q::clause" = type { i32, %class.vector.303, %class.obj_ref.304, i32, %"class.sat::literal", ptr, ptr }
%class.vector.303 = type { ptr }
%class.obj_ref.304 = type { ptr, ptr }
%"class.q::quantifier_stat" = type { i32, i32, i32, i32, i32, i32, i32, i32, i32, i32, i32, float }
%class.quantifier = type { %class.expr, i32, i32, ptr, ptr, i32, i32, i8, i8, %class.symbol, %class.symbol, i32, i32, [0 x i8] }
%class.expr = type { %class.ast }
%class.ast = type { i32, i24, i32, i32 }
%class.app = type { %class.expr, ptr, i32, [0 x ptr] }

; Function Attrs: mustprogress nounwind uwtable
define linkonce_odr hidden noundef ptr @_ZNK7obj_refI10quantifier11ast_managerEcvPS0_Ev(ptr noundef nonnull align 8 dereferenceable(16) %this) #4 comdat align 2 {
entry:
  %this.addr = alloca ptr, align 8
  store ptr %this, ptr %this.addr, align 8
  %this1 = load ptr, ptr %this.addr, align 8
  %m_obj = getelementptr inbounds %class.obj_ref.304, ptr %this1, i32 0, i32 0
  %0 = load ptr, ptr %m_obj, align 8
  ret ptr %0
}

; Function Attrs: mustprogress nounwind uwtable
define linkonce_odr hidden noundef i32 @_ZNK1q15quantifier_stat21get_case_split_factorEv(ptr noundef nonnull align 4 dereferenceable(48) %this) #4 comdat align 2 {
entry:
  %this.addr = alloca ptr, align 8
  store ptr %this, ptr %this.addr, align 8
  %this1 = load ptr, ptr %this.addr, align 8
  %m_case_split_factor = getelementptr inbounds %"class.q::quantifier_stat", ptr %this1, i32 0, i32 3
  %0 = load i32, ptr %m_case_split_factor, align 4
  ret i32 %0
}

; Function Attrs: mustprogress nounwind uwtable
define linkonce_odr hidden noundef i32 @_ZNK1q15quantifier_stat26get_num_nested_quantifiersEv(ptr noundef nonnull align 4 dereferenceable(48) %this) #4 comdat align 2 {
entry:
  %this.addr = alloca ptr, align 8
  store ptr %this, ptr %this.addr, align 8
  %this1 = load ptr, ptr %this.addr, align 8
  %m_num_nested_quantifiers = getelementptr inbounds %"class.q::quantifier_stat", ptr %this1, i32 0, i32 4
  %0 = load i32, ptr %m_num_nested_quantifiers, align 4
  ret i32 %0
}

; Function Attrs: mustprogress nounwind uwtable
define linkonce_odr hidden noundef nonnull align 8 dereferenceable(4408) ptr @_ZN3sat9extension1sEv(ptr noundef nonnull align 8 dereferenceable(32) %this) #4 comdat align 2 {
entry:
  %this.addr = alloca ptr, align 8
  store ptr %this, ptr %this.addr, align 8
  %this1 = load ptr, ptr %this.addr, align 8
  %m_solver = getelementptr inbounds %"class.sat::extension", ptr %this1, i32 0, i32 4
  %0 = load ptr, ptr %m_solver, align 8
  ret ptr %0
}

; Function Attrs: mustprogress nounwind uwtable
define linkonce_odr hidden noundef i32 @_ZNK1q15quantifier_stat29get_num_instances_curr_searchEv(ptr noundef nonnull align 4 dereferenceable(48) %this) #4 comdat align 2 {
entry:
  %this.addr = alloca ptr, align 8
  store ptr %this, ptr %this.addr, align 8
  %this1 = load ptr, ptr %this.addr, align 8
  %m_num_instances_curr_search = getelementptr inbounds %"class.q::quantifier_stat", ptr %this1, i32 0, i32 8
  %0 = load i32, ptr %m_num_instances_curr_search, align 4
  ret i32 %0
}

; Function Attrs: mustprogress nounwind uwtable
define linkonce_odr hidden noundef i32 @_ZNK3app12get_num_argsEv(ptr noundef nonnull align 8 dereferenceable(32) %this) #4 comdat align 2 {
entry:
  %this.addr = alloca ptr, align 8
  store ptr %this, ptr %this.addr, align 8
  %this1 = load ptr, ptr %this.addr, align 8
  %m_num_args = getelementptr inbounds %class.app, ptr %this1, i32 0, i32 2
  %0 = load i32, ptr %m_num_args, align 8
  ret i32 %0
}

; Function Attrs: mustprogress nounwind uwtable
define linkonce_odr hidden noundef i32 @_ZNK10quantifier13get_num_declsEv(ptr noundef nonnull align 8 dereferenceable(80) %this) #4 comdat align 2 {
entry:
  %this.addr = alloca ptr, align 8
  store ptr %this, ptr %this.addr, align 8
  %this1 = load ptr, ptr %this.addr, align 8
  %m_num_decls = getelementptr inbounds %class.quantifier, ptr %this1, i32 0, i32 2
  %0 = load i32, ptr %m_num_decls, align 4
  ret i32 %0
}

; Function Attrs: mustprogress nounwind uwtable
define linkonce_odr hidden noundef i32 @_ZNK10quantifier10get_weightEv(ptr noundef nonnull align 8 dereferenceable(80) %this) #4 comdat align 2 {
entry:
  %this.addr = alloca ptr, align 8
  store ptr %this, ptr %this.addr, align 8
  %this1 = load ptr, ptr %this.addr, align 8
  %m_weight = getelementptr inbounds %class.quantifier, ptr %this1, i32 0, i32 6
  %0 = load i32, ptr %m_weight, align 4
  ret i32 %0
}

; Function Attrs: mustprogress nounwind uwtable
define linkonce_odr hidden noundef i32 @_ZNK1q15quantifier_stat14get_generationEv(ptr noundef nonnull align 4 dereferenceable(48) %this) #4 comdat align 2 {
entry:
  %this.addr = alloca ptr, align 8
  store ptr %this, ptr %this.addr, align 8
  %this1 = load ptr, ptr %this.addr, align 8
  %m_generation = getelementptr inbounds %"class.q::quantifier_stat", ptr %this1, i32 0, i32 2
  %0 = load i32, ptr %m_generation, align 4
  ret i32 %0
}

; Function Attrs: mustprogress nounwind uwtable
define linkonce_odr hidden noundef i32 @_ZNK1q15quantifier_stat9get_depthEv(ptr noundef nonnull align 4 dereferenceable(48) %this) #4 comdat align 2 {
entry:
  %this.addr = alloca ptr, align 8
  store ptr %this, ptr %this.addr, align 8
  %this1 = load ptr, ptr %this.addr, align 8
  %m_depth = getelementptr inbounds %"class.q::quantifier_stat", ptr %this1, i32 0, i32 1
  %0 = load i32, ptr %m_depth, align 4
  ret i32 %0
}

; Function Attrs: mustprogress nounwind uwtable
define linkonce_odr hidden noundef i32 @_ZNK1q15quantifier_stat8get_sizeEv(ptr noundef nonnull align 4 dereferenceable(48) %this) #4 comdat align 2 {
entry:
  %this.addr = alloca ptr, align 8
  store ptr %this, ptr %this.addr, align 8
  %this1 = load ptr, ptr %this.addr, align 8
  %m_size = getelementptr inbounds %"class.q::quantifier_stat", ptr %this1, i32 0, i32 0
  %0 = load i32, ptr %m_size, align 4
  ret i32 %0
}

; Function Attrs: mustprogress nounwind uwtable
define linkonce_odr hidden noundef nonnull align 4 dereferenceable(4) ptr @_ZN1q15quantifier_stat29get_num_instances_curr_branchEv(ptr noundef nonnull align 4 dereferenceable(48) %this) #4 comdat align 2 {
entry:
  %this.addr = alloca ptr, align 8
  store ptr %this, ptr %this.addr, align 8
  %this1 = load ptr, ptr %this.addr, align 8
  %m_num_instances_curr_branch = getelementptr inbounds %"class.q::quantifier_stat", ptr %this1, i32 0, i32 9
  ret ptr %m_num_instances_curr_branch
}

; Function Attrs: mustprogress nounwind uwtable
define linkonce_odr hidden noundef nonnull align 4 dereferenceable(4) ptr @_ZN6vectorIfLb0EjEixEj(ptr noundef nonnull align 8 dereferenceable(8) %this, i32 noundef %idx) #4 comdat align 2 {
entry:
  %this.addr = alloca ptr, align 8
  %idx.addr = alloca i32, align 4
  store ptr %this, ptr %this.addr, align 8
  store i32 %idx, ptr %idx.addr, align 4
  %this1 = load ptr, ptr %this.addr, align 8
  %m_data = getelementptr inbounds %class.vector.31, ptr %this1, i32 0, i32 0
  %0 = load ptr, ptr %m_data, align 8
  %1 = load i32, ptr %idx.addr, align 4
  %idxprom = zext i32 %1 to i64
  %arrayidx = getelementptr inbounds float, ptr %0, i64 %idxprom
  ret ptr %arrayidx
}

; Function Attrs: mustprogress uwtable
define linkonce_odr hidden noundef ptr @_ZNK1q7binding1qEv(ptr noundef nonnull align 8 dereferenceable(48) %this) #5 comdat align 2 {
entry:
  %this.addr = alloca ptr, align 8
  store ptr %this, ptr %this.addr, align 8
  %this1 = load ptr, ptr %this.addr, align 8
  %c = getelementptr inbounds %"struct.q::binding", ptr %this1, i32 0, i32 1
  %0 = load ptr, ptr %c, align 8
  %m_q = getelementptr inbounds %"struct.q::clause", ptr %0, i32 0, i32 2
  %call = call noundef ptr @_ZNK7obj_refI10quantifier11ast_managerEcvPS0_Ev(ptr noundef nonnull align 8 dereferenceable(16) %m_q)
  ret ptr %call
}

; Function Attrs: mustprogress uwtable
define hidden void @_ZN1q5queue10set_valuesERNS_7bindingEf(ptr noundef nonnull align 8 dereferenceable(912) %this, ptr noundef nonnull align 8 dereferenceable(48) %f, float noundef %cost) #5 align 2 {
entry:
  %this.addr = alloca ptr, align 8
  %f.addr = alloca ptr, align 8
  %cost.addr = alloca float, align 4
  %stat = alloca ptr, align 8
  %q = alloca ptr, align 8
  %pat = alloca ptr, align 8
  store ptr %this, ptr %this.addr, align 8
  store ptr %f, ptr %f.addr, align 8
  store float %cost, ptr %cost.addr, align 4
  %this1 = load ptr, ptr %this.addr, align 8
  %0 = load ptr, ptr %f.addr, align 8
  %c = getelementptr inbounds %"struct.q::binding", ptr %0, i32 0, i32 1
  %1 = load ptr, ptr %c, align 8
  %m_stat = getelementptr inbounds %"struct.q::clause", ptr %1, i32 0, i32 5
  %2 = load ptr, ptr %m_stat, align 8
  store ptr %2, ptr %stat, align 8
  %3 = load ptr, ptr %f.addr, align 8
  %call = call noundef ptr @_ZNK1q7binding1qEv(ptr noundef nonnull align 8 dereferenceable(48) %3)
  store ptr %call, ptr %q, align 8
  %4 = load ptr, ptr %f.addr, align 8
  %m_pattern = getelementptr inbounds %"struct.q::binding", ptr %4, i32 0, i32 2
  %5 = load ptr, ptr %m_pattern, align 8
  store ptr %5, ptr %pat, align 8
  %6 = load float, ptr %cost.addr, align 4
  %m_vals = getelementptr inbounds %"class.q::queue", ptr %this1, i32 0, i32 10
  %call2 = call noundef nonnull align 4 dereferenceable(4) ptr @_ZN6vectorIfLb0EjEixEj(ptr noundef nonnull align 8 dereferenceable(8) %m_vals, i32 noundef 14)
  store float %6, ptr %call2, align 4
  %7 = load ptr, ptr %f.addr, align 8
  %m_min_top_generation = getelementptr inbounds %"struct.q::binding", ptr %7, i32 0, i32 4
  %8 = load i32, ptr %m_min_top_generation, align 4
  %conv = uitofp i32 %8 to float
  %m_vals3 = getelementptr inbounds %"class.q::queue", ptr %this1, i32 0, i32 10
  %call4 = call noundef nonnull align 4 dereferenceable(4) ptr @_ZN6vectorIfLb0EjEixEj(ptr noundef nonnull align 8 dereferenceable(8) %m_vals3, i32 noundef 13)
  store float %conv, ptr %call4, align 4
  %9 = load ptr, ptr %f.addr, align 8
  %m_max_top_generation = getelementptr inbounds %"struct.q::binding", ptr %9, i32 0, i32 5
  %10 = load i32, ptr %m_max_top_generation, align 8
  %conv5 = uitofp i32 %10 to float
  %m_vals6 = getelementptr inbounds %"class.q::queue", ptr %this1, i32 0, i32 10
  %call7 = call noundef nonnull align 4 dereferenceable(4) ptr @_ZN6vectorIfLb0EjEixEj(ptr noundef nonnull align 8 dereferenceable(8) %m_vals6, i32 noundef 12)
  store float %conv5, ptr %call7, align 4
  %11 = load ptr, ptr %stat, align 8
  %call8 = call noundef nonnull align 4 dereferenceable(4) ptr @_ZN1q15quantifier_stat29get_num_instances_curr_branchEv(ptr noundef nonnull align 4 dereferenceable(48) %11)
  %12 = load i32, ptr %call8, align 4
  %conv9 = uitofp i32 %12 to float
  %m_vals10 = getelementptr inbounds %"class.q::queue", ptr %this1, i32 0, i32 10
  %call11 = call noundef nonnull align 4 dereferenceable(4) ptr @_ZN6vectorIfLb0EjEixEj(ptr noundef nonnull align 8 dereferenceable(8) %m_vals10, i32 noundef 11)
  store float %conv9, ptr %call11, align 4
  %13 = load ptr, ptr %stat, align 8
  %call12 = call noundef i32 @_ZNK1q15quantifier_stat8get_sizeEv(ptr noundef nonnull align 4 dereferenceable(48) %13)
  %conv13 = uitofp i32 %call12 to float
  %m_vals14 = getelementptr inbounds %"class.q::queue", ptr %this1, i32 0, i32 10
  %call15 = call noundef nonnull align 4 dereferenceable(4) ptr @_ZN6vectorIfLb0EjEixEj(ptr noundef nonnull align 8 dereferenceable(8) %m_vals14, i32 noundef 10)
  store float %conv13, ptr %call15, align 4
  %14 = load ptr, ptr %stat, align 8
  %call16 = call noundef i32 @_ZNK1q15quantifier_stat9get_depthEv(ptr noundef nonnull align 4 dereferenceable(48) %14)
  %conv17 = uitofp i32 %call16 to float
  %m_vals18 = getelementptr inbounds %"class.q::queue", ptr %this1, i32 0, i32 10
  %call19 = call noundef nonnull align 4 dereferenceable(4) ptr @_ZN6vectorIfLb0EjEixEj(ptr noundef nonnull align 8 dereferenceable(8) %m_vals18, i32 noundef 9)
  store float %conv17, ptr %call19, align 4
  %15 = load ptr, ptr %f.addr, align 8
  %m_max_generation = getelementptr inbounds %"struct.q::binding", ptr %15, i32 0, i32 3
  %16 = load i32, ptr %m_max_generation, align 8
  %conv20 = uitofp i32 %16 to float
  %m_vals21 = getelementptr inbounds %"class.q::queue", ptr %this1, i32 0, i32 10
  %call22 = call noundef nonnull align 4 dereferenceable(4) ptr @_ZN6vectorIfLb0EjEixEj(ptr noundef nonnull align 8 dereferenceable(8) %m_vals21, i32 noundef 8)
  store float %conv20, ptr %call22, align 4
  %17 = load ptr, ptr %stat, align 8
  %call23 = call noundef i32 @_ZNK1q15quantifier_stat14get_generationEv(ptr noundef nonnull align 4 dereferenceable(48) %17)
  %conv24 = uitofp i32 %call23 to float
  %m_vals25 = getelementptr inbounds %"class.q::queue", ptr %this1, i32 0, i32 10
  %call26 = call noundef nonnull align 4 dereferenceable(4) ptr @_ZN6vectorIfLb0EjEixEj(ptr noundef nonnull align 8 dereferenceable(8) %m_vals25, i32 noundef 7)
  store float %conv24, ptr %call26, align 4
  %18 = load ptr, ptr %q, align 8
  %call27 = call noundef i32 @_ZNK10quantifier10get_weightEv(ptr noundef nonnull align 8 dereferenceable(80) %18)
  %conv28 = sitofp i32 %call27 to float
  %m_vals29 = getelementptr inbounds %"class.q::queue", ptr %this1, i32 0, i32 10
  %call30 = call noundef nonnull align 4 dereferenceable(4) ptr @_ZN6vectorIfLb0EjEixEj(ptr noundef nonnull align 8 dereferenceable(8) %m_vals29, i32 noundef 6)
  store float %conv28, ptr %call30, align 4
  %19 = load ptr, ptr %q, align 8
  %call31 = call noundef i32 @_ZNK10quantifier13get_num_declsEv(ptr noundef nonnull align 8 dereferenceable(80) %19)
  %conv32 = uitofp i32 %call31 to float
  %m_vals33 = getelementptr inbounds %"class.q::queue", ptr %this1, i32 0, i32 10
  %call34 = call noundef nonnull align 4 dereferenceable(4) ptr @_ZN6vectorIfLb0EjEixEj(ptr noundef nonnull align 8 dereferenceable(8) %m_vals33, i32 noundef 5)
  store float %conv32, ptr %call34, align 4
  %20 = load ptr, ptr %pat, align 8
  %tobool = icmp ne ptr %20, null
  br i1 %tobool, label %cond.true, label %cond.false

cond.true:                                        ; preds = %entry
  %21 = load ptr, ptr %pat, align 8
  %call35 = call noundef i32 @_ZNK3app12get_num_argsEv(ptr noundef nonnull align 8 dereferenceable(32) %21)
  %conv36 = uitofp i32 %call35 to float
  br label %cond.end

cond.false:                                       ; preds = %entry
  br label %cond.end

cond.end:                                         ; preds = %cond.false, %cond.true
  %cond = phi float [ %conv36, %cond.true ], [ 1.000000e+00, %cond.false ]
  %m_vals37 = getelementptr inbounds %"class.q::queue", ptr %this1, i32 0, i32 10
  %call38 = call noundef nonnull align 4 dereferenceable(4) ptr @_ZN6vectorIfLb0EjEixEj(ptr noundef nonnull align 8 dereferenceable(8) %m_vals37, i32 noundef 4)
  store float %cond, ptr %call38, align 4
  %22 = load ptr, ptr %stat, align 8
  %call39 = call noundef i32 @_ZNK1q15quantifier_stat29get_num_instances_curr_searchEv(ptr noundef nonnull align 4 dereferenceable(48) %22)
  %conv40 = uitofp i32 %call39 to float
  %m_vals41 = getelementptr inbounds %"class.q::queue", ptr %this1, i32 0, i32 10
  %call42 = call noundef nonnull align 4 dereferenceable(4) ptr @_ZN6vectorIfLb0EjEixEj(ptr noundef nonnull align 8 dereferenceable(8) %m_vals41, i32 noundef 3)
  store float %conv40, ptr %call42, align 4
  %ctx = getelementptr inbounds %"class.q::queue", ptr %this1, i32 0, i32 1
  %23 = load ptr, ptr %ctx, align 8
  %call43 = call noundef nonnull align 8 dereferenceable(4408) ptr @_ZN3sat9extension1sEv(ptr noundef nonnull align 8 dereferenceable(32) %23)
  %vtable = load ptr, ptr %call43, align 8
  %vfn = getelementptr inbounds ptr, ptr %vtable, i64 10
  %24 = load ptr, ptr %vfn, align 8
  %call44 = call noundef i32 %24(ptr noundef nonnull align 8 dereferenceable(4408) %call43)
  %conv45 = uitofp i32 %call44 to float
  %m_vals46 = getelementptr inbounds %"class.q::queue", ptr %this1, i32 0, i32 10
  %call47 = call noundef nonnull align 4 dereferenceable(4) ptr @_ZN6vectorIfLb0EjEixEj(ptr noundef nonnull align 8 dereferenceable(8) %m_vals46, i32 noundef 2)
  store float %conv45, ptr %call47, align 4
  %25 = load ptr, ptr %stat, align 8
  %call48 = call noundef i32 @_ZNK1q15quantifier_stat26get_num_nested_quantifiersEv(ptr noundef nonnull align 4 dereferenceable(48) %25)
  %conv49 = uitofp i32 %call48 to float
  %m_vals50 = getelementptr inbounds %"class.q::queue", ptr %this1, i32 0, i32 10
  %call51 = call noundef nonnull align 4 dereferenceable(4) ptr @_ZN6vectorIfLb0EjEixEj(ptr noundef nonnull align 8 dereferenceable(8) %m_vals50, i32 noundef 1)
  store float %conv49, ptr %call51, align 4
  %26 = load ptr, ptr %stat, align 8
  %call52 = call noundef i32 @_ZNK1q15quantifier_stat21get_case_split_factorEv(ptr noundef nonnull align 4 dereferenceable(48) %26)
  %conv53 = uitofp i32 %call52 to float
  %m_vals54 = getelementptr inbounds %"class.q::queue", ptr %this1, i32 0, i32 10
  %call55 = call noundef nonnull align 4 dereferenceable(4) ptr @_ZN6vectorIfLb0EjEixEj(ptr noundef nonnull align 8 dereferenceable(8) %m_vals54, i32 noundef 0)
  store float %conv53, ptr %call55, align 4
  ret void
}