; Function Attrs: mustprogress uwtable
define hidden void @_ZN1q5queue10set_valuesERNS_7bindingEf(ptr nocapture noundef nonnull readonly align 8 dereferenceable(912) %this, ptr nocapture noundef nonnull readonly align 8 dereferenceable(48) %f, float noundef %cost) local_unnamed_addr #3 align 2 {
entry:
  %c = getelementptr inbounds i8, ptr %f, i64 16
  %0 = load ptr, ptr %c, align 8
  %m_stat = getelementptr inbounds i8, ptr %0, i64 40
  %1 = load ptr, ptr %m_stat, align 8
  %m_q.i = getelementptr inbounds i8, ptr %0, i64 16
  %2 = load ptr, ptr %m_q.i, align 8
  %m_pattern = getelementptr inbounds i8, ptr %f, i64 24
  %3 = load ptr, ptr %m_pattern, align 8
  %m_vals = getelementptr inbounds i8, ptr %this, i64 880
  %4 = load ptr, ptr %m_vals, align 8
  %arrayidx.i = getelementptr inbounds i8, ptr %4, i64 56
  store float %cost, ptr %arrayidx.i, align 4
  %m_min_top_generation = getelementptr inbounds i8, ptr %f, i64 36
  %5 = load i32, ptr %m_min_top_generation, align 4
  %conv = uitofp i32 %5 to float
  %6 = load ptr, ptr %m_vals, align 8
  %arrayidx.i14 = getelementptr inbounds i8, ptr %6, i64 52
  store float %conv, ptr %arrayidx.i14, align 4
  %m_max_top_generation = getelementptr inbounds i8, ptr %f, i64 40
  %7 = load i32, ptr %m_max_top_generation, align 8
  %conv5 = uitofp i32 %7 to float
  %8 = load ptr, ptr %m_vals, align 8
  %arrayidx.i15 = getelementptr inbounds i8, ptr %8, i64 48
  store float %conv5, ptr %arrayidx.i15, align 4
  %m_num_instances_curr_branch.i = getelementptr inbounds i8, ptr %1, i64 36
  %9 = load i32, ptr %m_num_instances_curr_branch.i, align 4
  %conv9 = uitofp i32 %9 to float
  %10 = load ptr, ptr %m_vals, align 8
  %arrayidx.i16 = getelementptr inbounds i8, ptr %10, i64 44
  store float %conv9, ptr %arrayidx.i16, align 4
  %11 = load i32, ptr %1, align 4
  %conv13 = uitofp i32 %11 to float
  %12 = load ptr, ptr %m_vals, align 8
  %arrayidx.i17 = getelementptr inbounds i8, ptr %12, i64 40
  store float %conv13, ptr %arrayidx.i17, align 4
  %m_depth.i = getelementptr inbounds i8, ptr %1, i64 4
  %13 = load i32, ptr %m_depth.i, align 4
  %conv17 = uitofp i32 %13 to float
  %14 = load ptr, ptr %m_vals, align 8
  %arrayidx.i18 = getelementptr inbounds i8, ptr %14, i64 36
  store float %conv17, ptr %arrayidx.i18, align 4
  %m_max_generation = getelementptr inbounds i8, ptr %f, i64 32
  %15 = load i32, ptr %m_max_generation, align 8
  %conv20 = uitofp i32 %15 to float
  %16 = load ptr, ptr %m_vals, align 8
  %arrayidx.i19 = getelementptr inbounds i8, ptr %16, i64 32
  store float %conv20, ptr %arrayidx.i19, align 4
  %m_generation.i = getelementptr inbounds i8, ptr %1, i64 8
  %17 = load i32, ptr %m_generation.i, align 4
  %conv24 = uitofp i32 %17 to float
  %18 = load ptr, ptr %m_vals, align 8
  %arrayidx.i20 = getelementptr inbounds i8, ptr %18, i64 28
  store float %conv24, ptr %arrayidx.i20, align 4
  %m_weight.i = getelementptr inbounds i8, ptr %2, i64 44
  %19 = load i32, ptr %m_weight.i, align 4
  %conv28 = sitofp i32 %19 to float
  %20 = load ptr, ptr %m_vals, align 8
  %arrayidx.i21 = getelementptr inbounds i8, ptr %20, i64 24
  store float %conv28, ptr %arrayidx.i21, align 4
  %m_num_decls.i = getelementptr inbounds i8, ptr %2, i64 20
  %21 = load i32, ptr %m_num_decls.i, align 4
  %conv32 = uitofp i32 %21 to float
  %22 = load ptr, ptr %m_vals, align 8
  %arrayidx.i22 = getelementptr inbounds i8, ptr %22, i64 20
  store float %conv32, ptr %arrayidx.i22, align 4
  %tobool.not = icmp eq ptr %3, null
  br i1 %tobool.not, label %cond.end, label %cond.true

cond.true:                                        ; preds = %entry
  %m_num_args.i = getelementptr inbounds i8, ptr %3, i64 24
  %23 = load i32, ptr %m_num_args.i, align 8
  %conv36 = uitofp i32 %23 to float
  br label %cond.end

cond.end:                                         ; preds = %entry, %cond.true
  %cond = phi float [ %conv36, %cond.true ], [ 1.000000e+00, %entry ]
  %24 = load ptr, ptr %m_vals, align 8
  %arrayidx.i23 = getelementptr inbounds i8, ptr %24, i64 16
  store float %cond, ptr %arrayidx.i23, align 4
  %m_num_instances_curr_search.i = getelementptr inbounds i8, ptr %1, i64 32
  %25 = load i32, ptr %m_num_instances_curr_search.i, align 4
  %conv40 = uitofp i32 %25 to float
  %26 = load ptr, ptr %m_vals, align 8
  %arrayidx.i24 = getelementptr inbounds i8, ptr %26, i64 12
  store float %conv40, ptr %arrayidx.i24, align 4
  %ctx = getelementptr inbounds i8, ptr %this, i64 8
  %27 = load ptr, ptr %ctx, align 8
  %m_solver.i = getelementptr inbounds i8, ptr %27, i64 24
  %28 = load ptr, ptr %m_solver.i, align 8
  %vtable = load ptr, ptr %28, align 8
  %vfn = getelementptr inbounds i8, ptr %vtable, i64 80
  %29 = load ptr, ptr %vfn, align 8
  %call44 = tail call noundef i32 %29(ptr noundef nonnull align 8 dereferenceable(4408) %28)
  %conv45 = uitofp i32 %call44 to float
  %30 = load ptr, ptr %m_vals, align 8
  %arrayidx.i25 = getelementptr inbounds i8, ptr %30, i64 8
  store float %conv45, ptr %arrayidx.i25, align 4
  %m_num_nested_quantifiers.i = getelementptr inbounds i8, ptr %1, i64 16
  %31 = load i32, ptr %m_num_nested_quantifiers.i, align 4
  %conv49 = uitofp i32 %31 to float
  %32 = load ptr, ptr %m_vals, align 8
  %arrayidx.i26 = getelementptr inbounds i8, ptr %32, i64 4
  store float %conv49, ptr %arrayidx.i26, align 4
  %m_case_split_factor.i = getelementptr inbounds i8, ptr %1, i64 12
  %33 = load i32, ptr %m_case_split_factor.i, align 4
  %conv53 = uitofp i32 %33 to float
  %34 = load ptr, ptr %m_vals, align 8
  store float %conv53, ptr %34, align 4
  ret void
}